target datalayout = "e-m:e-p270:32:32-p271:32:32-p272:64:64-i64:64-i128:128-f80:128-n8:16:32:64-S128"
target triple = "x86_64-pc-linux-gnu"

%struct.key2any_ctx_st = type { ptr, i32, i32, ptr, %struct.ossl_passphrase_data_st }
%struct.ossl_passphrase_data_st = type { i32, %union.anon, i8, ptr, i64 }
%union.anon = type { %struct.anon }
%struct.anon = type { ptr, i64 }

@.str = private unnamed_addr constant [68 x i8] c"../openssl/providers/implementations/encode_decode/encode_key2any.c\00", align 1
@__func__.key2any_encode = private unnamed_addr constant [15 x i8] c"key2any_encode\00", align 1
@.str.13 = private unnamed_addr constant [16 x i8] c"SM2 PRIVATE KEY\00", align 1
@.str.14 = private unnamed_addr constant [15 x i8] c"SM2 PARAMETERS\00", align 1
@__func__.sm2_to_SM2_pem_encode = private unnamed_addr constant [22 x i8] c"sm2_to_SM2_pem_encode\00", align 1

; Function Attrs: nounwind uwtable
define internal i32 @key2any_encode(ptr noundef %0, ptr noundef %1, ptr noundef %2, i32 noundef %3, ptr noundef %4, ptr noundef %5, ptr noundef %6, ptr noundef %7, ptr noundef %8, ptr noundef %9, ptr noundef %10) #0 {
  %12 = alloca ptr, align 8
  %13 = alloca ptr, align 8
  %14 = alloca ptr, align 8
  %15 = alloca i32, align 4
  %16 = alloca ptr, align 8
  %17 = alloca ptr, align 8
  %18 = alloca ptr, align 8
  %19 = alloca ptr, align 8
  %20 = alloca ptr, align 8
  %21 = alloca ptr, align 8
  %22 = alloca ptr, align 8
  %23 = alloca i32, align 4
  %24 = alloca ptr, align 8
  store ptr %0, ptr %12, align 8, !tbaa !7
  store ptr %1, ptr %13, align 8, !tbaa !26
  store ptr %2, ptr %14, align 8, !tbaa !3
  store i32 %3, ptr %15, align 4, !tbaa !25
  store ptr %4, ptr %16, align 8, !tbaa !23
  store ptr %5, ptr %17, align 8, !tbaa !3
  store ptr %6, ptr %18, align 8, !tbaa !3
  store ptr %7, ptr %19, align 8, !tbaa !3
  store ptr %8, ptr %20, align 8, !tbaa !3
  store ptr %9, ptr %21, align 8, !tbaa !3
  store ptr %10, ptr %22, align 8, !tbaa !3
  call void @llvm.lifetime.start.p0(i64 4, ptr %23) #4
  store i32 0, ptr %23, align 4, !tbaa !25
  %25 = load ptr, ptr %14, align 8, !tbaa !3
  %26 = icmp eq ptr %25, null
  br i1 %26, label %27, label %28

27:                                               ; preds = %11
  call void @ERR_new()
  call void @ERR_set_debug(ptr noundef @.str, i32 noundef 1140, ptr noundef @__func__.key2any_encode)
  call void (i32, i32, ptr, ...) @ERR_set_error(i32 noundef 57, i32 noundef 786690, ptr noundef null)
  br label %73

28:                                               ; preds = %11
  %29 = load ptr, ptr %18, align 8, !tbaa !3
  %30 = icmp ne ptr %29, null
  br i1 %30, label %31, label %71

31:                                               ; preds = %28
  %32 = load ptr, ptr %17, align 8, !tbaa !3
  %33 = icmp eq ptr %32, null
  br i1 %33, label %40, label %34

34:                                               ; preds = %31
  %35 = load ptr, ptr %17, align 8, !tbaa !3
  %36 = load ptr, ptr %14, align 8, !tbaa !3
  %37 = load i32, ptr %15, align 4, !tbaa !25
  %38 = call i32 %35(ptr noundef %36, i32 noundef %37)
  %39 = icmp ne i32 %38, 0
  br i1 %39, label %40, label %71

40:                                               ; preds = %34, %31
  call void @llvm.lifetime.start.p0(i64 8, ptr %24) #4
  %41 = load ptr, ptr %12, align 8, !tbaa !7
  %42 = getelementptr inbounds nuw %struct.key2any_ctx_st, ptr %41, i32 0, i32 0
  %43 = load ptr, ptr %42, align 8, !tbaa !9
  %44 = load ptr, ptr %13, align 8, !tbaa !26
  %45 = call ptr @ossl_bio_new_from_core_bio(ptr noundef %43, ptr noundef %44)
  store ptr %45, ptr %24, align 8, !tbaa !31
  %46 = load ptr, ptr %24, align 8, !tbaa !31
  %47 = icmp ne ptr %46, null
  br i1 %47, label %48, label %68

48:                                               ; preds = %40
  %49 = load ptr, ptr %19, align 8, !tbaa !3
  %50 = icmp eq ptr %49, null
  br i1 %50, label %58, label %51

51:                                               ; preds = %48
  %52 = load ptr, ptr %12, align 8, !tbaa !7
  %53 = getelementptr inbounds nuw %struct.key2any_ctx_st, ptr %52, i32 0, i32 4
  %54 = load ptr, ptr %19, align 8, !tbaa !3
  %55 = load ptr, ptr %20, align 8, !tbaa !3
  %56 = call i32 @ossl_pw_set_ossl_passphrase_cb(ptr noundef %53, ptr noundef %54, ptr noundef %55)
  %57 = icmp ne i32 %56, 0
  br i1 %57, label %58, label %68

58:                                               ; preds = %51, %48
  %59 = load ptr, ptr %18, align 8, !tbaa !3
  %60 = load ptr, ptr %24, align 8, !tbaa !31
  %61 = load ptr, ptr %14, align 8, !tbaa !3
  %62 = load i32, ptr %15, align 4, !tbaa !25
  %63 = load ptr, ptr %16, align 8, !tbaa !23
  %64 = load ptr, ptr %21, align 8, !tbaa !3
  %65 = load ptr, ptr %22, align 8, !tbaa !3
  %66 = load ptr, ptr %12, align 8, !tbaa !7
  %67 = call i32 %59(ptr noundef %60, ptr noundef %61, i32 noundef %62, ptr noundef %63, ptr noundef %64, ptr noundef %65, ptr noundef %66)
  store i32 %67, ptr %23, align 4, !tbaa !25
  br label %68

68:                                               ; preds = %58, %51, %40
  %69 = load ptr, ptr %24, align 8, !tbaa !31
  %70 = call i32 @BIO_free(ptr noundef %69)
  call void @llvm.lifetime.end.p0(i64 8, ptr %24) #4
  br label %72

71:                                               ; preds = %34, %28
  call void @ERR_new()
  call void @ERR_set_debug(ptr noundef @.str, i32 noundef 1153, ptr noundef @__func__.key2any_encode)
  call void (i32, i32, ptr, ...) @ERR_set_error(i32 noundef 57, i32 noundef 524550, ptr noundef null)
  br label %72

72:                                               ; preds = %71, %68
  br label %73

73:                                               ; preds = %72, %27
  %74 = load i32, ptr %23, align 4, !tbaa !25
  call void @llvm.lifetime.end.p0(i64 4, ptr %23) #4
  ret i32 %74
}

; Function Attrs: nounwind uwtable
define internal i32 @sm2_to_SM2_pem_encode(ptr noundef %0, ptr noundef %1, ptr noundef %2, ptr noundef %3, i32 noundef %4, ptr noundef %5, ptr noundef %6) #0 {
  %8 = alloca i32, align 4
  %9 = alloca ptr, align 8
  %10 = alloca ptr, align 8
  %11 = alloca ptr, align 8
  %12 = alloca ptr, align 8
  %13 = alloca i32, align 4
  %14 = alloca ptr, align 8
  %15 = alloca ptr, align 8
  store ptr %0, ptr %9, align 8, !tbaa !3
  store ptr %1, ptr %10, align 8, !tbaa !26
  store ptr %2, ptr %11, align 8, !tbaa !3
  store ptr %3, ptr %12, align 8, !tbaa !19
  store i32 %4, ptr %13, align 4, !tbaa !25
  store ptr %5, ptr %14, align 8, !tbaa !3
  store ptr %6, ptr %15, align 8, !tbaa !3
  %16 = load ptr, ptr %12, align 8, !tbaa !19
  %17 = icmp ne ptr %16, null
  br i1 %17, label %18, label %19

18:                                               ; preds = %7
  call void @ERR_new()
  call void @ERR_set_debug(ptr noundef @.str, i32 noundef 1562, ptr noundef @__func__.sm2_to_SM2_pem_encode)
  call void (i32, i32, ptr, ...) @ERR_set_error(i32 noundef 57, i32 noundef 524550, ptr noundef null)
  store i32 0, ptr %8, align 4
  br label %40

19:                                               ; preds = %7
  %20 = load i32, ptr %13, align 4, !tbaa !25
  %21 = and i32 %20, 1
  %22 = icmp ne i32 %21, 0
  br i1 %22, label %23, label %30

23:                                               ; preds = %19
  %24 = load ptr, ptr %9, align 8, !tbaa !3
  %25 = load ptr, ptr %10, align 8, !tbaa !26
  %26 = load ptr, ptr %11, align 8, !tbaa !3
  %27 = load ptr, ptr %14, align 8, !tbaa !3
  %28 = load ptr, ptr %15, align 8, !tbaa !3
  %29 = call i32 @key2any_encode(ptr noundef %24, ptr noundef %25, ptr noundef %26, i32 noundef 408, ptr noundef @.str.13, ptr noundef null, ptr noundef @key_to_type_specific_pem_priv_bio, ptr noundef %27, ptr noundef %28, ptr noundef @prepare_ec_params, ptr noundef @ec_prv_k2d)
  store i32 %29, ptr %8, align 4
  br label %40

30:                                               ; preds = %19
  %31 = load i32, ptr %13, align 4, !tbaa !25
  %32 = and i32 %31, 132
  %33 = icmp ne i32 %32, 0
  br i1 %33, label %34, label %39

34:                                               ; preds = %30
  %35 = load ptr, ptr %9, align 8, !tbaa !3
  %36 = load ptr, ptr %10, align 8, !tbaa !26
  %37 = load ptr, ptr %11, align 8, !tbaa !3
  %38 = call i32 @key2any_encode(ptr noundef %35, ptr noundef %36, ptr noundef %37, i32 noundef 408, ptr noundef @.str.14, ptr noundef null, ptr noundef @key_to_type_specific_pem_param_bio, ptr noundef null, ptr noundef null, ptr noundef null, ptr noundef @ec_param_k2d)
  store i32 %38, ptr %8, align 4
  br label %40

39:                                               ; preds = %30
  call void @ERR_new()
  call void @ERR_set_debug(ptr noundef @.str, i32 noundef 1562, ptr noundef @__func__.sm2_to_SM2_pem_encode)
  call void (i32, i32, ptr, ...) @ERR_set_error(i32 noundef 57, i32 noundef 524550, ptr noundef null)
  store i32 0, ptr %8, align 4
  br label %40

40:                                               ; preds = %39, %34, %23, %18
  %41 = load i32, ptr %8, align 4
  ret i32 %41
}